target datalayout = "e-m:e-p270:32:32-p271:32:32-p272:64:64-i64:64-i128:128-f80:128-n8:16:32:64-S128"
target triple = "x86_64-unknown-linux-gnu"

%"struct.node::AssertionInfo" = type { ptr, ptr, ptr }
%"class.v8::Local" = type { %"class.v8::LocalBase" }
%"class.v8::LocalBase" = type { %"class.v8::IndirectHandleBase" }
%"class.v8::IndirectHandleBase" = type { ptr }
%"class.node::StreamPipe" = type { %"class.node::AsyncWrap", i32, i8, i8, i8, i8, i8, i8, i64, %"class.node::StreamPipe::ReadableListener", %"class.node::StreamPipe::WritableListener" }
%"class.node::AsyncWrap" = type { %"class.node::BaseObject", i32, i8, double, double }
%"class.node::BaseObject" = type { %"class.node::MemoryRetainer", %"class.v8::Global", ptr, ptr }
%"class.node::MemoryRetainer" = type { ptr }
%"class.v8::Global" = type { %"class.v8::PersistentBase" }
%"class.v8::PersistentBase" = type { %"class.v8::IndirectHandleBase" }
%"class.node::StreamPipe::ReadableListener" = type { %"class.node::StreamListener" }
%"class.node::StreamListener" = type { ptr, ptr, ptr }
%"class.node::StreamPipe::WritableListener" = type { %"class.node::StreamListener" }
%"class.node::StreamBase" = type { %"class.node::StreamResource", ptr, %"class.node::EmitToJSStreamListener" }
%"class.node::StreamResource" = type { ptr, ptr, i64, i64 }
%"class.node::EmitToJSStreamListener" = type { %"class.node::ReportWritesToJSStreamListener" }
%"class.node::ReportWritesToJSStreamListener" = type { %"class.node::StreamListener" }

@_ZZN4node10StreamPipeC1EPNS_10StreamBaseES2_N2v85LocalINS3_6ObjectEEEE4args = internal constant %"struct.node::AssertionInfo" { ptr @.str, ptr @.str.1, ptr @.str.2 }, align 8
@_ZZN4node10StreamPipeC1EPNS_10StreamBaseES2_N2v85LocalINS3_6ObjectEEEE4args_0 = internal constant %"struct.node::AssertionInfo" { ptr @.str.3, ptr @.str.4, ptr @.str.2 }, align 8
@_ZTVN4node14StreamListenerE = external unnamed_addr constant { [10 x ptr] }, align 8
@_ZZN4node14StreamResource18PushStreamListenerEPNS_14StreamListenerEE4args = linkonce_odr dso_local constant %"struct.node::AssertionInfo" { ptr @.str.29, ptr @.str.30, ptr @.str.31 }, comdat, align 8
@_ZZN4node14StreamResource18PushStreamListenerEPNS_14StreamListenerEE4args_0 = linkonce_odr dso_local constant %"struct.node::AssertionInfo" { ptr @.str.32, ptr @.str.33, ptr @.str.31 }, comdat, align 8

; Function Attrs: mustprogress nounwind uwtable
define linkonce_odr dso_local void @_ZN4node14StreamListenerC2Ev(ptr noundef nonnull align 8 dereferenceable(24) %this) unnamed_addr #4 comdat align 2 {
entry:
  %this.addr = alloca ptr, align 8
  store ptr %this, ptr %this.addr, align 8
  %this1 = load ptr, ptr %this.addr, align 8
  store ptr getelementptr inbounds ({ [10 x ptr] }, ptr @_ZTVN4node14StreamListenerE, i32 0, i32 0, i32 2), ptr %this1, align 8
  %stream_ = getelementptr inbounds %"class.node::StreamListener", ptr %this1, i32 0, i32 1
  store ptr null, ptr %stream_, align 8
  %previous_listener_ = getelementptr inbounds %"class.node::StreamListener", ptr %this1, i32 0, i32 2
  store ptr null, ptr %previous_listener_, align 8
  ret void
}

; Function Attrs: mustprogress nounwind uwtable
define linkonce_odr dso_local void @_ZN4node14StreamResource18PushStreamListenerEPNS_14StreamListenerE(ptr noundef nonnull align 8 dereferenceable(32) %this, ptr noundef %listener) #4 comdat align 2 {
entry:
  %this.addr = alloca ptr, align 8
  %listener.addr = alloca ptr, align 8
  store ptr %this, ptr %this.addr, align 8
  store ptr %listener, ptr %listener.addr, align 8
  %this1 = load ptr, ptr %this.addr, align 8
  br label %do.body

do.body:                                          ; preds = %entry
  %0 = load ptr, ptr %listener.addr, align 8
  %cmp = icmp ne ptr %0, null
  %lnot = xor i1 %cmp, true
  %lnot2 = xor i1 %lnot, true
  %lnot3 = xor i1 %lnot2, true
  br i1 %lnot3, label %if.then, label %if.end

if.then:                                          ; preds = %do.body
  br label %do.body4

do.body4:                                         ; preds = %if.then
  call void @_ZN4node6AssertERKNS_13AssertionInfoE(ptr noundef nonnull align 8 dereferenceable(24) @_ZZN4node14StreamResource18PushStreamListenerEPNS_14StreamListenerEE4args)
  call void @abort() #11
  unreachable

do.end:                                           ; No predecessors!
  br label %if.end

if.end:                                           ; preds = %do.end, %do.body
  br label %do.end5

do.end5:                                          ; preds = %if.end
  br label %do.body6

do.body6:                                         ; preds = %do.end5
  %1 = load ptr, ptr %listener.addr, align 8
  %stream_ = getelementptr inbounds %"class.node::StreamListener", ptr %1, i32 0, i32 1
  %2 = load ptr, ptr %stream_, align 8
  %cmp7 = icmp eq ptr %2, null
  %lnot8 = xor i1 %cmp7, true
  %lnot9 = xor i1 %lnot8, true
  %lnot10 = xor i1 %lnot9, true
  br i1 %lnot10, label %if.then11, label %if.end14

if.then11:                                        ; preds = %do.body6
  br label %do.body12

do.body12:                                        ; preds = %if.then11
  call void @_ZN4node6AssertERKNS_13AssertionInfoE(ptr noundef nonnull align 8 dereferenceable(24) @_ZZN4node14StreamResource18PushStreamListenerEPNS_14StreamListenerEE4args_0)
  call void @abort() #11
  unreachable

do.end13:                                         ; No predecessors!
  br label %if.end14

if.end14:                                         ; preds = %do.end13, %do.body6
  br label %do.end15

do.end15:                                         ; preds = %if.end14
  %listener_ = getelementptr inbounds %"class.node::StreamResource", ptr %this1, i32 0, i32 1
  %3 = load ptr, ptr %listener_, align 8
  %4 = load ptr, ptr %listener.addr, align 8
  %previous_listener_ = getelementptr inbounds %"class.node::StreamListener", ptr %4, i32 0, i32 2
  store ptr %3, ptr %previous_listener_, align 8
  %5 = load ptr, ptr %listener.addr, align 8
  %stream_16 = getelementptr inbounds %"class.node::StreamListener", ptr %5, i32 0, i32 1
  store ptr %this1, ptr %stream_16, align 8
  %6 = load ptr, ptr %listener.addr, align 8
  %listener_17 = getelementptr inbounds %"class.node::StreamResource", ptr %this1, i32 0, i32 1
  store ptr %6, ptr %listener_17, align 8
  ret void
}

; Function Attrs: mustprogress nounwind uwtable
define linkonce_odr dso_local void @_ZN4node10StreamPipe16WritableListenerC2Ev(ptr noundef nonnull align 8 dereferenceable(24) %this) unnamed_addr #4 comdat align 2 {
entry:
  %this.addr = alloca ptr, align 8
  store ptr %this, ptr %this.addr, align 8
  %this1 = load ptr, ptr %this.addr, align 8
  call void @_ZN4node14StreamListenerC2Ev(ptr noundef nonnull align 8 dereferenceable(24) %this1) #3
  store ptr getelementptr inbounds ({ [10 x ptr] }, ptr @_ZTVN4node10StreamPipe16WritableListenerE, i32 0, i32 0, i32 2), ptr %this1, align 8
  ret void
}

; Function Attrs: mustprogress nounwind uwtable
define linkonce_odr dso_local void @_ZN4node10StreamPipe16ReadableListenerC2Ev(ptr noundef nonnull align 8 dereferenceable(24) %this) unnamed_addr #4 comdat align 2 {
entry:
  %this.addr = alloca ptr, align 8
  store ptr %this, ptr %this.addr, align 8
  %this1 = load ptr, ptr %this.addr, align 8
  call void @_ZN4node14StreamListenerC2Ev(ptr noundef nonnull align 8 dereferenceable(24) %this1) #3
  store ptr getelementptr inbounds ({ [10 x ptr] }, ptr @_ZTVN4node10StreamPipe16ReadableListenerE, i32 0, i32 0, i32 2), ptr %this1, align 8
  ret void
}

; Function Attrs: mustprogress nounwind uwtable
define linkonce_odr dso_local noundef ptr @_ZNK4node10StreamBase10stream_envEv(ptr noundef nonnull align 8 dereferenceable(64) %this) #4 comdat align 2 {
entry:
  %this.addr = alloca ptr, align 8
  store ptr %this, ptr %this.addr, align 8
  %this1 = load ptr, ptr %this.addr, align 8
  %env_ = getelementptr inbounds %"class.node::StreamBase", ptr %this1, i32 0, i32 1
  %0 = load ptr, ptr %env_, align 8
  ret ptr %0
}

; Function Attrs: mustprogress nounwind uwtable
define dso_local void @_ZN4node10StreamPipeC2EPNS_10StreamBaseES2_N2v85LocalINS3_6ObjectEEE(ptr noundef nonnull align 8 dereferenceable(128) %this, ptr noundef %source, ptr noundef %sink, ptr %obj.coerce) unnamed_addr #4 align 2 {
entry:
  %obj = alloca %"class.v8::Local", align 8
  %this.addr = alloca ptr, align 8
  %source.addr = alloca ptr, align 8
  %sink.addr = alloca ptr, align 8
  %agg.tmp = alloca %"class.v8::Local", align 8
  %coerce.dive = getelementptr inbounds %"class.v8::Local", ptr %obj, i32 0, i32 0
  %coerce.dive1 = getelementptr inbounds %"class.v8::LocalBase", ptr %coerce.dive, i32 0, i32 0
  %coerce.dive2 = getelementptr inbounds %"class.v8::IndirectHandleBase", ptr %coerce.dive1, i32 0, i32 0
  store ptr %obj.coerce, ptr %coerce.dive2, align 8
  store ptr %this, ptr %this.addr, align 8
  store ptr %source, ptr %source.addr, align 8
  store ptr %sink, ptr %sink.addr, align 8
  %this3 = load ptr, ptr %this.addr, align 8
  %0 = load ptr, ptr %source.addr, align 8
  %call = call noundef ptr @_ZNK4node10StreamBase10stream_envEv(ptr noundef nonnull align 8 dereferenceable(64) %0)
  call void @llvm.memcpy.p0.p0.i64(ptr align 8 %agg.tmp, ptr align 8 %obj, i64 8, i1 false)
  %coerce.dive4 = getelementptr inbounds %"class.v8::Local", ptr %agg.tmp, i32 0, i32 0
  %coerce.dive5 = getelementptr inbounds %"class.v8::LocalBase", ptr %coerce.dive4, i32 0, i32 0
  %coerce.dive6 = getelementptr inbounds %"class.v8::IndirectHandleBase", ptr %coerce.dive5, i32 0, i32 0
  %1 = load ptr, ptr %coerce.dive6, align 8
  call void @_ZN4node9AsyncWrapC2EPNS_11EnvironmentEN2v85LocalINS3_6ObjectEEENS0_12ProviderTypeEd(ptr noundef nonnull align 8 dereferenceable(56) %this3, ptr noundef %call, ptr %1, i32 noundef 37, double noundef -1.000000e+00)
  store ptr getelementptr inbounds ({ [20 x ptr] }, ptr @_ZTVN4node10StreamPipeE, i32 0, i32 0, i32 2), ptr %this3, align 8
  %pending_writes_ = getelementptr inbounds %"class.node::StreamPipe", ptr %this3, i32 0, i32 1
  store i32 0, ptr %pending_writes_, align 8
  %is_reading_ = getelementptr inbounds %"class.node::StreamPipe", ptr %this3, i32 0, i32 2
  store i8 0, ptr %is_reading_, align 4
  %is_eof_ = getelementptr inbounds %"class.node::StreamPipe", ptr %this3, i32 0, i32 3
  store i8 0, ptr %is_eof_, align 1
  %is_closed_ = getelementptr inbounds %"class.node::StreamPipe", ptr %this3, i32 0, i32 4
  store i8 1, ptr %is_closed_, align 2
  %sink_destroyed_ = getelementptr inbounds %"class.node::StreamPipe", ptr %this3, i32 0, i32 5
  store i8 0, ptr %sink_destroyed_, align 1
  %source_destroyed_ = getelementptr inbounds %"class.node::StreamPipe", ptr %this3, i32 0, i32 6
  store i8 0, ptr %source_destroyed_, align 8
  %uses_wants_write_ = getelementptr inbounds %"class.node::StreamPipe", ptr %this3, i32 0, i32 7
  store i8 0, ptr %uses_wants_write_, align 1
  %wanted_data_ = getelementptr inbounds %"class.node::StreamPipe", ptr %this3, i32 0, i32 8
  store i64 0, ptr %wanted_data_, align 8
  %readable_listener_ = getelementptr inbounds %"class.node::StreamPipe", ptr %this3, i32 0, i32 9
  call void @_ZN4node10StreamPipe16ReadableListenerC2Ev(ptr noundef nonnull align 8 dereferenceable(24) %readable_listener_) #3
  %writable_listener_ = getelementptr inbounds %"class.node::StreamPipe", ptr %this3, i32 0, i32 10
  call void @_ZN4node10StreamPipe16WritableListenerC2Ev(ptr noundef nonnull align 8 dereferenceable(24) %writable_listener_) #3
  call void @_ZN4node10BaseObject8MakeWeakEv(ptr noundef nonnull align 8 dereferenceable(32) %this3)
  br label %do.body

do.body:                                          ; preds = %entry
  %2 = load ptr, ptr %sink.addr, align 8
  %cmp = icmp ne ptr %2, null
  %lnot = xor i1 %cmp, true
  %lnot7 = xor i1 %lnot, true
  %lnot8 = xor i1 %lnot7, true
  br i1 %lnot8, label %if.then, label %if.end

if.then:                                          ; preds = %do.body
  br label %do.body9

do.body9:                                         ; preds = %if.then
  call void @_ZN4node6AssertERKNS_13AssertionInfoE(ptr noundef nonnull align 8 dereferenceable(24) @_ZZN4node10StreamPipeC1EPNS_10StreamBaseES2_N2v85LocalINS3_6ObjectEEEE4args)
  call void @abort() #11
  unreachable

do.end:                                           ; No predecessors!
  br label %if.end

if.end:                                           ; preds = %do.end, %do.body
  br label %do.end10

do.end10:                                         ; preds = %if.end
  br label %do.body11

do.body11:                                        ; preds = %do.end10
  %3 = load ptr, ptr %source.addr, align 8
  %cmp12 = icmp ne ptr %3, null
  %lnot13 = xor i1 %cmp12, true
  %lnot14 = xor i1 %lnot13, true
  %lnot15 = xor i1 %lnot14, true
  br i1 %lnot15, label %if.then16, label %if.end19

if.then16:                                        ; preds = %do.body11
  br label %do.body17

do.body17:                                        ; preds = %if.then16
  call void @_ZN4node6AssertERKNS_13AssertionInfoE(ptr noundef nonnull align 8 dereferenceable(24) @_ZZN4node10StreamPipeC1EPNS_10StreamBaseES2_N2v85LocalINS3_6ObjectEEEE4args_0)
  call void @abort() #11
  unreachable

do.end18:                                         ; No predecessors!
  br label %if.end19

if.end19:                                         ; preds = %do.end18, %do.body11
  br label %do.end20

do.end20:                                         ; preds = %if.end19
  %4 = load ptr, ptr %source.addr, align 8
  %readable_listener_21 = getelementptr inbounds %"class.node::StreamPipe", ptr %this3, i32 0, i32 9
  call void @_ZN4node14StreamResource18PushStreamListenerEPNS_14StreamListenerE(ptr noundef nonnull align 8 dereferenceable(32) %4, ptr noundef %readable_listener_21)
  %5 = load ptr, ptr %sink.addr, align 8
  %writable_listener_22 = getelementptr inbounds %"class.node::StreamPipe", ptr %this3, i32 0, i32 10
  call void @_ZN4node14StreamResource18PushStreamListenerEPNS_14StreamListenerE(ptr noundef nonnull align 8 dereferenceable(32) %5, ptr noundef %writable_listener_22)
  %6 = load ptr, ptr %sink.addr, align 8
  %vtable = load ptr, ptr %6, align 8
  %vfn = getelementptr inbounds ptr, ptr %vtable, i64 7
  %7 = load ptr, ptr %vfn, align 8
  %call23 = call noundef zeroext i1 %7(ptr noundef nonnull align 8 dereferenceable(32) %6)
  %uses_wants_write_24 = getelementptr inbounds %"class.node::StreamPipe", ptr %this3, i32 0, i32 7
  %frombool = zext i1 %call23 to i8
  store i8 %frombool, ptr %uses_wants_write_24, align 1
  ret void
}