; Function Attrs: mustprogress nounwind uwtable
define dso_local void @_ZN4node10StreamPipeC2EPNS_10StreamBaseES2_N2v85LocalINS3_6ObjectEEE(ptr noundef nonnull align 8 dereferenceable(128) %this, ptr noundef %source, ptr noundef %sink, ptr %obj.coerce) unnamed_addr #3 align 2 {
entry:
  %env_.i = getelementptr inbounds i8, ptr %source, i64 32
  %0 = load ptr, ptr %env_.i, align 8
  tail call void @_ZN4node9AsyncWrapC2EPNS_11EnvironmentEN2v85LocalINS3_6ObjectEEENS0_12ProviderTypeEd(ptr noundef nonnull align 8 dereferenceable(56) %this, ptr noundef %0, ptr %obj.coerce, i32 noundef 37, double noundef -1.000000e+00) #12
  store ptr getelementptr inbounds ({ [20 x ptr] }, ptr @_ZTVN4node10StreamPipeE, i64 0, i32 0, i64 2), ptr %this, align 8
  %pending_writes_ = getelementptr inbounds i8, ptr %this, i64 56
  store i32 0, ptr %pending_writes_, align 8
  %is_reading_ = getelementptr inbounds i8, ptr %this, i64 60
  store <4 x i8> <i8 0, i8 0, i8 1, i8 0>, ptr %is_reading_, align 4
  %source_destroyed_ = getelementptr inbounds i8, ptr %this, i64 64
  store i8 0, ptr %source_destroyed_, align 8
  %uses_wants_write_ = getelementptr inbounds i8, ptr %this, i64 65
  store i8 0, ptr %uses_wants_write_, align 1
  %wanted_data_ = getelementptr inbounds i8, ptr %this, i64 72
  store i64 0, ptr %wanted_data_, align 8
  %readable_listener_ = getelementptr inbounds i8, ptr %this, i64 80
  %stream_.i.i = getelementptr inbounds i8, ptr %this, i64 88
  tail call void @llvm.memset.p0.i64(ptr noundef nonnull align 8 dereferenceable(16) %stream_.i.i, i8 0, i64 16, i1 false)
  store ptr getelementptr inbounds ({ [10 x ptr] }, ptr @_ZTVN4node10StreamPipe16ReadableListenerE, i64 0, i32 0, i64 2), ptr %readable_listener_, align 8
  %writable_listener_ = getelementptr inbounds i8, ptr %this, i64 104
  %stream_.i.i5 = getelementptr inbounds i8, ptr %this, i64 112
  tail call void @llvm.memset.p0.i64(ptr noundef nonnull align 8 dereferenceable(16) %stream_.i.i5, i8 0, i64 16, i1 false)
  store ptr getelementptr inbounds ({ [10 x ptr] }, ptr @_ZTVN4node10StreamPipe16WritableListenerE, i64 0, i32 0, i64 2), ptr %writable_listener_, align 8
  tail call void @_ZN4node10BaseObject8MakeWeakEv(ptr noundef nonnull align 8 dereferenceable(32) %this) #12
  %cmp.not = icmp eq ptr %sink, null
  br i1 %cmp.not, label %do.body9, label %do.end20

do.body9:                                         ; preds = %entry
  tail call void @_ZN4node6AssertERKNS_13AssertionInfoE(ptr noundef nonnull align 8 dereferenceable(24) @_ZZN4node10StreamPipeC1EPNS_10StreamBaseES2_N2v85LocalINS3_6ObjectEEEE4args) #12
  tail call void @abort() #13
  unreachable

do.end20:                                         ; preds = %entry
  %1 = load ptr, ptr %stream_.i.i, align 8
  %cmp7.not.i = icmp eq ptr %1, null
  br i1 %cmp7.not.i, label %_ZN4node14StreamResource18PushStreamListenerEPNS_14StreamListenerE.exit, label %do.body12.i

do.body12.i:                                      ; preds = %do.end20
  tail call void @_ZN4node6AssertERKNS_13AssertionInfoE(ptr noundef nonnull align 8 dereferenceable(24) @_ZZN4node14StreamResource18PushStreamListenerEPNS_14StreamListenerEE4args_0) #12
  tail call void @abort() #13
  unreachable

_ZN4node14StreamResource18PushStreamListenerEPNS_14StreamListenerE.exit: ; preds = %do.end20
  %listener_.i = getelementptr inbounds i8, ptr %source, i64 8
  %2 = load ptr, ptr %listener_.i, align 8
  %previous_listener_.i = getelementptr inbounds i8, ptr %this, i64 96
  store ptr %2, ptr %previous_listener_.i, align 8
  store ptr %source, ptr %stream_.i.i, align 8
  store ptr %readable_listener_, ptr %listener_.i, align 8
  %3 = load ptr, ptr %stream_.i.i5, align 8
  %cmp7.not.i7 = icmp eq ptr %3, null
  br i1 %cmp7.not.i7, label %_ZN4node14StreamResource18PushStreamListenerEPNS_14StreamListenerE.exit11, label %do.body12.i8

do.body12.i8:                                     ; preds = %_ZN4node14StreamResource18PushStreamListenerEPNS_14StreamListenerE.exit
  tail call void @_ZN4node6AssertERKNS_13AssertionInfoE(ptr noundef nonnull align 8 dereferenceable(24) @_ZZN4node14StreamResource18PushStreamListenerEPNS_14StreamListenerEE4args_0) #12
  tail call void @abort() #13
  unreachable

_ZN4node14StreamResource18PushStreamListenerEPNS_14StreamListenerE.exit11: ; preds = %_ZN4node14StreamResource18PushStreamListenerEPNS_14StreamListenerE.exit
  %listener_.i9 = getelementptr inbounds i8, ptr %sink, i64 8
  %4 = load ptr, ptr %listener_.i9, align 8
  %previous_listener_.i10 = getelementptr inbounds i8, ptr %this, i64 120
  store ptr %4, ptr %previous_listener_.i10, align 8
  store ptr %sink, ptr %stream_.i.i5, align 8
  store ptr %writable_listener_, ptr %listener_.i9, align 8
  %vtable = load ptr, ptr %sink, align 8
  %vfn = getelementptr inbounds i8, ptr %vtable, i64 56
  %5 = load ptr, ptr %vfn, align 8
  %call23 = tail call noundef zeroext i1 %5(ptr noundef nonnull align 8 dereferenceable(32) %sink) #12
  %frombool = zext i1 %call23 to i8
  store i8 %frombool, ptr %uses_wants_write_, align 1
  ret void
}